target datalayout = "e-m:e-p270:32:32-p271:32:32-p272:64:64-i64:64-i128:128-f80:128-n8:16:32:64-S128"
target triple = "x86_64-pc-linux-gnu"

%struct.timespec = type { i64, i64 }

; Function Attrs: nounwind uwtable
define internal i64 @Abc_Clock() #0 {
  %1 = alloca i64, align 8
  %2 = alloca %struct.timespec, align 8
  %3 = alloca i64, align 8
  %4 = call i32 @clock_gettime(i32 noundef 1, ptr noundef %2) #8
  %5 = icmp slt i32 %4, 0
  br i1 %5, label %6, label %7

6:                                                ; preds = %0
  store i64 -1, ptr %1, align 8
  br label %18

7:                                                ; preds = %0
  %8 = getelementptr inbounds %struct.timespec, ptr %2, i32 0, i32 0
  %9 = load i64, ptr %8, align 8
  %10 = mul nsw i64 %9, 1000000
  store i64 %10, ptr %3, align 8
  %11 = getelementptr inbounds %struct.timespec, ptr %2, i32 0, i32 1
  %12 = load i64, ptr %11, align 8
  %13 = mul nsw i64 %12, 1000000
  %14 = sdiv i64 %13, 1000000000
  %15 = load i64, ptr %3, align 8
  %16 = add nsw i64 %15, %14
  store i64 %16, ptr %3, align 8
  %17 = load i64, ptr %3, align 8
  store i64 %17, ptr %1, align 8
  br label %18

18:                                               ; preds = %7, %6
  %19 = load i64, ptr %1, align 8
  ret i64 %19
}

; Function Attrs: nounwind uwtable
define ptr @Cnf_DeriveFast(ptr noundef %0, i32 noundef %1) #0 {
  %3 = alloca ptr, align 8
  %4 = alloca i32, align 4
  %5 = alloca ptr, align 8
  %6 = alloca i64, align 8
  store ptr %0, ptr %3, align 8
  store i32 %1, ptr %4, align 4
  store ptr null, ptr %5, align 8
  %7 = load ptr, ptr %3, align 8
  call void @Aig_ManCleanMarkAB(ptr noundef %7)
  %8 = call i64 @Abc_Clock()
  store i64 %8, ptr %6, align 8
  %9 = load ptr, ptr %3, align 8
  call void @Cnf_DeriveFastMark(ptr noundef %9)
  %10 = call i64 @Abc_Clock()
  store i64 %10, ptr %6, align 8
  %11 = load ptr, ptr %3, align 8
  %12 = load i32, ptr %4, align 4
  %13 = call ptr @Cnf_DeriveFastClauses(ptr noundef %11, i32 noundef %12)
  store ptr %13, ptr %5, align 8
  %14 = load ptr, ptr %3, align 8
  call void @Aig_ManCleanMarkA(ptr noundef %14)
  %15 = load ptr, ptr %5, align 8
  ret ptr %15
}