; Function Attrs: nounwind uwtable
define noalias noundef ptr @Cnf_DeriveFast(ptr noundef %0, i32 noundef %1) local_unnamed_addr #0 {
Abc_Clock.exit:
  %2 = alloca %struct.timespec, align 8
  %3 = alloca %struct.timespec, align 8
  tail call void @Aig_ManCleanMarkAB(ptr noundef %0) #14
  call void @llvm.lifetime.start.p0(i64 16, ptr nonnull %3)
  %4 = call i32 @clock_gettime(i32 noundef 1, ptr noundef nonnull %3) #14
  call void @llvm.lifetime.end.p0(i64 16, ptr nonnull %3)
  call void @Cnf_DeriveFastMark(ptr noundef %0)
  call void @llvm.lifetime.start.p0(i64 16, ptr nonnull %2)
  %5 = call i32 @clock_gettime(i32 noundef 1, ptr noundef nonnull %2) #14
  call void @llvm.lifetime.end.p0(i64 16, ptr nonnull %2)
  %6 = call ptr @Cnf_DeriveFastClauses(ptr noundef %0, i32 noundef %1)
  call void @Aig_ManCleanMarkA(ptr noundef %0) #14
  ret ptr %6
}